; Function Attrs: mustprogress nounwind uwtable
define dso_local void @_ZN6snappy8internal13WorkingMemoryD2Ev(ptr nocapture noundef nonnull readonly align 8 dereferenceable(40) %this) unnamed_addr #2 align 2 {
entry:
  %ref.tmp = alloca %"class.std::allocator", align 1
  call void @_ZNSaIcEC1Ev(ptr noundef nonnull align 1 dereferenceable(1) %ref.tmp) #19
  %0 = load ptr, ptr %this, align 8
  call void @_ZdlPv(ptr noundef %0) #22
  call void @_ZNSaIcED1Ev(ptr noundef nonnull align 1 dereferenceable(1) %ref.tmp) #19
  ret void
}